target datalayout = "e-m:e-p270:32:32-p271:32:32-p272:64:64-i64:64-i128:128-f80:128-n8:16:32:64-S128"
target triple = "x86_64-pc-linux-gnu"

%struct.jpeg_compress_struct = type { ptr, ptr, ptr, ptr, i32, i32, ptr, i32, i32, i32, i32, double, i32, i32, i32, ptr, [4 x ptr], [4 x ptr], [4 x ptr], [16 x i8], [16 x i8], [16 x i8], i32, ptr, i32, i32, i32, i32, i32, i32, i32, i32, i32, i8, i8, i8, i16, i16, i32, i32, i32, i32, i32, i32, i32, [4 x ptr], i32, i32, i32, [10 x i32], i32, i32, i32, i32, ptr, ptr, ptr, ptr, ptr, ptr, ptr, ptr, ptr, ptr, i32 }
%struct.my_fdct_controller = type { %struct.jpeg_forward_dct, ptr, ptr, ptr, [4 x ptr], ptr, ptr, ptr, ptr, [4 x ptr], ptr }
%struct.jpeg_forward_dct = type { ptr, ptr, ptr }
%struct.jpeg_component_info = type { i32, i32, i32, i32, i32, i32, i32, i32, i32, i32, i32, i32, i32, i32, i32, i32, i32, i32, i32, ptr, ptr }

; Function Attrs: nounwind uwtable
define internal void @forward_DCT(ptr noundef %0, ptr noundef %1, ptr noundef %2, ptr noundef %3, i32 noundef %4, i32 noundef %5, i32 noundef %6) #0 {
  %8 = alloca ptr, align 8
  %9 = alloca ptr, align 8
  %10 = alloca ptr, align 8
  %11 = alloca ptr, align 8
  %12 = alloca i32, align 4
  %13 = alloca i32, align 4
  %14 = alloca i32, align 4
  %15 = alloca ptr, align 8
  %16 = alloca ptr, align 8
  %17 = alloca ptr, align 8
  %18 = alloca i32, align 4
  %19 = alloca ptr, align 8
  %20 = alloca ptr, align 8
  %21 = alloca ptr, align 8
  store ptr %0, ptr %8, align 8, !tbaa !3
  store ptr %1, ptr %9, align 8, !tbaa !36
  store ptr %2, ptr %10, align 8, !tbaa !71
  store ptr %3, ptr %11, align 8, !tbaa !54
  store i32 %4, ptr %12, align 4, !tbaa !53
  store i32 %5, ptr %13, align 4, !tbaa !53
  store i32 %6, ptr %14, align 4, !tbaa !53
  call void @llvm.lifetime.start.p0(i64 8, ptr %15) #3
  %22 = load ptr, ptr %8, align 8, !tbaa !3
  %23 = getelementptr inbounds nuw %struct.jpeg_compress_struct, ptr %22, i32 0, i32 61
  %24 = load ptr, ptr %23, align 8, !tbaa !37
  store ptr %24, ptr %15, align 8, !tbaa !36
  call void @llvm.lifetime.start.p0(i64 8, ptr %16) #3
  %25 = load ptr, ptr %15, align 8, !tbaa !36
  %26 = getelementptr inbounds nuw %struct.my_fdct_controller, ptr %25, i32 0, i32 4
  %27 = load ptr, ptr %9, align 8, !tbaa !36
  %28 = getelementptr inbounds nuw %struct.jpeg_component_info, ptr %27, i32 0, i32 4
  %29 = load i32, ptr %28, align 8, !tbaa !60
  %30 = sext i32 %29 to i64
  %31 = getelementptr inbounds [4 x ptr], ptr %26, i64 0, i64 %30
  %32 = load ptr, ptr %31, align 8, !tbaa !54
  store ptr %32, ptr %16, align 8, !tbaa !54
  call void @llvm.lifetime.start.p0(i64 8, ptr %17) #3
  call void @llvm.lifetime.start.p0(i64 4, ptr %18) #3
  call void @llvm.lifetime.start.p0(i64 8, ptr %19) #3
  %33 = load ptr, ptr %15, align 8, !tbaa !36
  %34 = getelementptr inbounds nuw %struct.my_fdct_controller, ptr %33, i32 0, i32 1
  %35 = load ptr, ptr %34, align 8, !tbaa !45
  store ptr %35, ptr %19, align 8, !tbaa !36
  call void @llvm.lifetime.start.p0(i64 8, ptr %20) #3
  %36 = load ptr, ptr %15, align 8, !tbaa !36
  %37 = getelementptr inbounds nuw %struct.my_fdct_controller, ptr %36, i32 0, i32 2
  %38 = load ptr, ptr %37, align 8, !tbaa !47
  store ptr %38, ptr %20, align 8, !tbaa !36
  call void @llvm.lifetime.start.p0(i64 8, ptr %21) #3
  %39 = load ptr, ptr %15, align 8, !tbaa !36
  %40 = getelementptr inbounds nuw %struct.my_fdct_controller, ptr %39, i32 0, i32 3
  %41 = load ptr, ptr %40, align 8, !tbaa !48
  store ptr %41, ptr %21, align 8, !tbaa !36
  %42 = load ptr, ptr %15, align 8, !tbaa !36
  %43 = getelementptr inbounds nuw %struct.my_fdct_controller, ptr %42, i32 0, i32 5
  %44 = load ptr, ptr %43, align 8, !tbaa !52
  store ptr %44, ptr %17, align 8, !tbaa !54
  %45 = load i32, ptr %12, align 4, !tbaa !53
  %46 = load ptr, ptr %10, align 8, !tbaa !71
  %47 = zext i32 %45 to i64
  %48 = getelementptr inbounds nuw ptr, ptr %46, i64 %47
  store ptr %48, ptr %10, align 8, !tbaa !71
  store i32 0, ptr %18, align 4, !tbaa !53
  br label %49

49:                                               ; preds = %68, %7
  %50 = load i32, ptr %18, align 4, !tbaa !53
  %51 = load i32, ptr %14, align 4, !tbaa !53
  %52 = icmp ult i32 %50, %51
  br i1 %52, label %53, label %73

53:                                               ; preds = %49
  %54 = load ptr, ptr %20, align 8, !tbaa !36
  %55 = load ptr, ptr %10, align 8, !tbaa !71
  %56 = load i32, ptr %13, align 4, !tbaa !53
  %57 = load ptr, ptr %17, align 8, !tbaa !54
  call void %54(ptr noundef %55, i32 noundef %56, ptr noundef %57)
  %58 = load ptr, ptr %19, align 8, !tbaa !36
  %59 = load ptr, ptr %17, align 8, !tbaa !54
  call void %58(ptr noundef %59)
  %60 = load ptr, ptr %21, align 8, !tbaa !36
  %61 = load ptr, ptr %11, align 8, !tbaa !54
  %62 = load i32, ptr %18, align 4, !tbaa !53
  %63 = zext i32 %62 to i64
  %64 = getelementptr inbounds nuw [64 x i16], ptr %61, i64 %63
  %65 = getelementptr inbounds [64 x i16], ptr %64, i64 0, i64 0
  %66 = load ptr, ptr %16, align 8, !tbaa !54
  %67 = load ptr, ptr %17, align 8, !tbaa !54
  call void %60(ptr noundef %65, ptr noundef %66, ptr noundef %67)
  br label %68

68:                                               ; preds = %53
  %69 = load i32, ptr %18, align 4, !tbaa !53
  %70 = add i32 %69, 1
  store i32 %70, ptr %18, align 4, !tbaa !53
  %71 = load i32, ptr %13, align 4, !tbaa !53
  %72 = add i32 %71, 8
  store i32 %72, ptr %13, align 4, !tbaa !53
  br label %49, !llvm.loop !72

73:                                               ; preds = %49
  call void @llvm.lifetime.end.p0(i64 8, ptr %21) #3
  call void @llvm.lifetime.end.p0(i64 8, ptr %20) #3
  call void @llvm.lifetime.end.p0(i64 8, ptr %19) #3
  call void @llvm.lifetime.end.p0(i64 4, ptr %18) #3
  call void @llvm.lifetime.end.p0(i64 8, ptr %17) #3
  call void @llvm.lifetime.end.p0(i64 8, ptr %16) #3
  call void @llvm.lifetime.end.p0(i64 8, ptr %15) #3
  ret void
}